(lp0
(lp1
(dp2
S'output'
p3
F0.0019969481058085786
sS'weights'
p4
(lp5
F0.00587434854375214
aF-1.101296707140632
aF0.8855012860468823
aF-0.18782553366498284
aF0.3168711416162532
aF0.16971686737560837
aF-0.21778880444958248
aF-0.7626411488678368
aF-0.2695564651027349
aF0.9195331828015636
aF0.5578371550186396
aF-0.7004728221544589
aF-0.7868108765231885
aF3.3809873603612304
aF-0.10829549810235178
asS'delta'
p6
F-0.04017014659200749
sa(dp7
g3
F0.0032216796358385505
sg4
(lp8
F-0.7621788782610668
aF0.3487746050918873
aF-0.3640088351627425
aF-0.4781045514756121
aF-0.4600883237948368
aF0.9716562013184242
aF-0.4958381166294231
aF0.6718980424308607
aF-0.5460181038809755
aF-0.270194596040098
aF-0.3586902126183307
aF1.8338959093478429
aF-0.6869857893290854
aF2.8450254154495256
aF0.11630471686179
asg6
F-0.0017022555143527004
sa(dp9
g3
F0.34134133297515923
sg4
(lp10
F0.717524313022285
aF-0.3818701198306877
aF0.7313994799368284
aF0.6596942868075273
aF-0.4001799579603414
aF-0.06884798466440885
aF4.627778708185402
aF0.704177072189957
aF0.6827927960235376
aF0.907532176000301
aF-0.4926474204068187
aF-0.5413184428892452
aF0.48151870206241226
aF7.196753110230861
aF-1.3409903640907852
asg6
F-3.6779240789095426e-06
sa(dp11
g3
F0.10102610777223323
sg4
(lp12
F-0.6752165783253025
aF-1.172502906221901
aF-0.22095102887418075
aF3.121043532058317
aF0.5476958632573957
aF0.059611034995044145
aF0.27815761795319843
aF-0.26971450172514577
aF-0.2480900555085922
aF-0.5747147750997669
aF0.30220806605573897
aF0.407768187601022
aF0.4877476277078673
aF0.03664893328944478
aF-3.9217452103845596
asg6
F-0.011931265298314182
sa(dp13
g3
F0.06630755646623251
sg4
(lp14
F-1.063459689898945
aF0.8124742671958355
aF-0.8543074108241856
aF-0.09627618991410777
aF0.27615180065389133
aF-0.29652460087165056
aF-0.014490648025166478
aF-0.6705864609903123
aF1.381339002685082
aF0.6610112327799901
aF-0.9461624554618698
aF-0.1314157651537707
aF0.44586310425875775
aF2.952482074483551
aF-0.02911131749706379
asg6
F-0.03686882352213562
sa(dp15
g3
F0.00010805002936417285
sg4
(lp16
F0.5369479040597844
aF0.7113439457705864
aF-0.32450375111295215
aF-0.5772535129924893
aF-3.384167275293503
aF-0.40980714407663243
aF-0.03528023744083269
aF-0.4211140357380556
aF-0.7091276408582896
aF0.8056206537253874
aF0.31587670031941106
aF-0.28217401914002016
aF0.23427289899250364
aF-0.11532608109054399
aF-4.0301220448754425
asg6
F-0.00944167909751737
sa(dp17
g3
F0.7379142408559465
sg4
(lp18
F0.07154305523116498
aF0.4753467148225101
aF-0.7193450936837865
aF1.003038003795158
aF-0.683604252832886
aF0.7571902724719529
aF-0.05544787304105826
aF-1.040018120364636
aF-0.569518637922224
aF0.5483421728171559
aF0.9112284575827952
aF0.17828304185470212
aF0.5318120031125375
aF-0.14904074222246283
aF2.752972696310121
asg6
F0.0015422068626024055
sa(dp19
g3
F0.2222478351498793
sg4
(lp20
F0.6156818893472037
aF0.6345441109431832
aF-0.5305534802016678
aF-0.04973395873490895
aF0.4469568426426821
aF2.1224737996150815
aF0.857466423670166
aF-0.4528680978030507
aF0.419084967457635
aF0.5997602837196395
aF0.662093306507766
aF0.2226154251849582
aF-0.12445573902049849
aF0.3023385162951524
aF-3.4044040117217116
asg6
F-9.77697331618373e-05
sa(dp21
g3
F0.6122143142151613
sg4
(lp22
F0.8747224791151024
aF0.6001798696283104
aF-0.40413475607945953
aF-0.22773495458824372
aF0.7058817979560524
aF-0.224666110177707
aF-0.20615770210038914
aF0.8073484541970392
aF-0.23649076808508784
aF-0.9671379449835197
aF0.6445633256946447
aF-0.04918317685484157
aF1.3573485042276234
aF2.849206593587144
aF-0.1122184396061665
asg6
F-0.0009136797705471532
sa(dp23
g3
F0.9568261426587275
sg4
(lp24
F0.7266976808622263
aF-0.7473710563040141
aF0.5417565341191606
aF1.0717098996060177
aF-0.7070587100306378
aF-0.05465120275917706
aF3.6930810253146893
aF0.605999123748689
aF0.6836268154012886
aF0.9433485696025312
aF-0.7192015423733111
aF-0.4063895451899997
aF0.5910237052719094
aF-1.3303075873290748
aF-4.818977372617206
asg6
F0.0005587323032103243
saa(lp25
(dp26
g3
F0.9432975685940655
sg4
(lp27
F10.166140619134884
aF9.080374910705284
aF9.259054807458174
aF-6.190848282357656
aF11.175121204839536
aF-5.719340129180643
aF8.203237163272563
aF-6.393623528655557
aF9.616237558253617
aF5.348387684769859
aF-16.150420403381702
asg6
F6.723887374892763e-13
sa(dp28
g3
F0.9999993819686337
sg4
(lp29
F0.46365309972449625
aF-9.612938687422698
aF12.965717449806483
aF1.55202512579448
aF-0.0771833115027836
aF1.137224133824509
aF-0.20538292223604773
aF0.5664276686760159
aF-0.18774194335809505
aF0.3913899815038655
aF9.51534834962269
asg6
F-6.108797933022591e-07
sa(dp30
g3
F0.9975652603607158
sg4
(lp31
F-1.8573687259807714
aF-0.06843298424744544
aF2.3673607622247594
aF-0.8294543484736231
aF-0.2978649557331157
aF-1.5554207335672625
aF1.1566980242014262
aF2.3082897422104978
aF0.12686018675281321
aF0.25594540326752085
aF3.6259272912670233
asg6
F0.005183527239993779
sa(dp32
g3
F0.9978173172847584
sg4
(lp33
F6.680271047305492
aF7.027859099981615
aF8.0621321966799
aF-5.528385328137983
aF8.013740401579728
aF-5.434759428411565
aF6.9047419989018985
aF-4.984529880049958
aF7.183041622017626
aF4.411543539752569
aF-9.241125759165488
asg6
F-2.2749843258139768e-11
sa(dp34
g3
F1.9461371745822386e-09
sg4
(lp35
F6.338705040199157
aF6.323216558860402
aF3.9070423046759477
aF4.041261053056423
aF7.1859689951716135
aF4.197217760743758
aF-5.2525403741504615
aF3.9389053607876026
aF6.415024538461729
aF-2.8770118232329955
aF-20.483352833412724
asg6
F-0.09367111655779908
sa(dp36
g3
F0.9999772567068252
sg4
(lp37
F7.70837653054662
aF8.375679161391105
aF9.833754411922994
aF-6.705665666873535
aF9.609118510478705
aF-6.263538480547146
aF7.900515541780511
aF-5.535625960468071
aF7.791296931940253
aF4.916999235588639
aF-6.741138356941171
asg6
F-2.159627931631088e-14
sa(dp38
g3
F1.1123719772526323e-12
sg4
(lp39
F6.656833419259065
aF6.575856811611131
aF4.330513999679416
aF5.052033805437693
aF7.789842732061308
aF5.171757445324711
aF-6.449010324592486
aF4.728084147079847
aF6.748122037845312
aF-3.8743878885801983
aF-26.780831292358545
asg6
F0.06636499103669484
sa(dp40
g3
F0.9988703987954899
sg4
(lp41
F2.3875889304911335
aF1.589024630986202
aF2.366399960188556
aF1.8107860112783531
aF1.59575511757025
aF1.6843079423741494
aF1.038123697809007
aF-0.023152383679971935
aF1.420999364967835
aF1.3785710349466287
aF2.728284123455658
asg6
F1.5547582931376343e-06
saa(lp42
(dp43
g3
F0.9770820887575881
sg4
(lp44
F6.359876968235854
aF-7.810714278426286
aF-0.9594445979467638
aF2.5255446105814916
aF-7.688855328793364
aF3.607612930353941
aF-4.167835208122988
aF4.18667641849195
aF-3.788296672953541
asg6
F-0.021607055325959443
sa(dp45
g3
F0.03731061986082163
sg4
(lp46
F-5.976566721466221
aF5.324079290497911
aF-8.047784095030748
aF4.0000997813395704
aF6.211719066272544
aF12.394894879591202
aF-31.954432950107126
aF-3.5238116248381686
aF-7.774808812186275
asg6
F-0.14800116498124796
sa(dp47
g3
F4.3094920885223643e-10
sg4
(lp48
F-20.56266373167465
aF4.256678115843939
aF-0.9418142040411515
aF-4.416118405749732
aF24.589282309661606
aF7.290832911601408
aF-5.667124890255057
aF-2.205885509856833
aF-6.166268511273947
asg6
F0.010639192791506222
sa(dp49
g3
F1.187508019888937e-05
sg4
(lp50
F-4.563874510009443
aF4.305881339926668
aF0.4931043638513413
aF-6.141567261514736
aF9.087165801059538
aF-5.3958000708264295
aF7.558955345031326
aF-0.22748010973959598
aF-0.08268466091955774
asg6
F-7.44295848863133e-05
saa.